target datalayout = "e-m:e-p270:32:32-p271:32:32-p272:64:64-i64:64-i128:128-f80:128-n8:16:32:64-S128"
target triple = "x86_64-pc-linux-gnu"

%struct.slurmdb_assoc_rec = type { ptr, ptr, ptr, ptr, ptr, ptr, ptr, i32, i32, i32, i32, i32, ptr, ptr, ptr, ptr, ptr, ptr, i32, i32, i16, ptr, ptr, i32, i32, i32, ptr, ptr, ptr, ptr, ptr, ptr, ptr, ptr, i32, i32, ptr, i32, ptr, i32, ptr, i32, i32, ptr, ptr, ptr }
%struct.sacctmgr_file_opts_t = type { i32, %struct.slurmdb_assoc_rec, i16, ptr, ptr, ptr, ptr, ptr, ptr, ptr }

; Function Attrs: nounwind uwtable
define internal void @_destroy_sacctmgr_file_opts(ptr noundef %0) #0 {
  %2 = alloca ptr, align 8
  %3 = alloca ptr, align 8
  store ptr %0, ptr %2, align 8
  call void @llvm.lifetime.start.p0(i64 8, ptr %3) #9
  %4 = load ptr, ptr %2, align 8
  store ptr %4, ptr %3, align 8
  %5 = load ptr, ptr %3, align 8
  %6 = icmp ne ptr %5, null
  br i1 %6, label %7, label %48

7:                                                ; preds = %1
  %8 = load ptr, ptr %3, align 8
  %9 = getelementptr inbounds nuw %struct.sacctmgr_file_opts_t, ptr %8, i32 0, i32 1
  call void @slurmdb_free_assoc_rec_members(ptr noundef %9)
  br label %10

10:                                               ; preds = %7
  %11 = load ptr, ptr %3, align 8
  %12 = getelementptr inbounds nuw %struct.sacctmgr_file_opts_t, ptr %11, i32 0, i32 3
  %13 = load ptr, ptr %12, align 8
  %14 = icmp ne ptr %13, null
  br i1 %14, label %15, label %19

15:                                               ; preds = %10
  %16 = load ptr, ptr %3, align 8
  %17 = getelementptr inbounds nuw %struct.sacctmgr_file_opts_t, ptr %16, i32 0, i32 3
  %18 = load ptr, ptr %17, align 8
  call void @list_destroy(ptr noundef %18)
  br label %19

19:                                               ; preds = %15, %10
  %20 = load ptr, ptr %3, align 8
  %21 = getelementptr inbounds nuw %struct.sacctmgr_file_opts_t, ptr %20, i32 0, i32 3
  store ptr null, ptr %21, align 8
  br label %22

22:                                               ; preds = %19
  br label %23

23:                                               ; preds = %22
  %24 = load ptr, ptr %3, align 8
  %25 = getelementptr inbounds nuw %struct.sacctmgr_file_opts_t, ptr %24, i32 0, i32 4
  call void @slurm_xfree(ptr noundef %25)
  %26 = load ptr, ptr %3, align 8
  %27 = getelementptr inbounds nuw %struct.sacctmgr_file_opts_t, ptr %26, i32 0, i32 5
  call void @slurm_xfree(ptr noundef %27)
  %28 = load ptr, ptr %3, align 8
  %29 = getelementptr inbounds nuw %struct.sacctmgr_file_opts_t, ptr %28, i32 0, i32 6
  call void @slurm_xfree(ptr noundef %29)
  %30 = load ptr, ptr %3, align 8
  %31 = getelementptr inbounds nuw %struct.sacctmgr_file_opts_t, ptr %30, i32 0, i32 7
  call void @slurm_xfree(ptr noundef %31)
  %32 = load ptr, ptr %3, align 8
  %33 = getelementptr inbounds nuw %struct.sacctmgr_file_opts_t, ptr %32, i32 0, i32 8
  call void @slurm_xfree(ptr noundef %33)
  br label %34

34:                                               ; preds = %23
  %35 = load ptr, ptr %3, align 8
  %36 = getelementptr inbounds nuw %struct.sacctmgr_file_opts_t, ptr %35, i32 0, i32 9
  %37 = load ptr, ptr %36, align 8
  %38 = icmp ne ptr %37, null
  br i1 %38, label %39, label %43

39:                                               ; preds = %34
  %40 = load ptr, ptr %3, align 8
  %41 = getelementptr inbounds nuw %struct.sacctmgr_file_opts_t, ptr %40, i32 0, i32 9
  %42 = load ptr, ptr %41, align 8
  call void @list_destroy(ptr noundef %42)
  br label %43

43:                                               ; preds = %39, %34
  %44 = load ptr, ptr %3, align 8
  %45 = getelementptr inbounds nuw %struct.sacctmgr_file_opts_t, ptr %44, i32 0, i32 9
  store ptr null, ptr %45, align 8
  br label %46

46:                                               ; preds = %43
  br label %47

47:                                               ; preds = %46
  call void @slurm_xfree(ptr noundef %3)
  br label %48

48:                                               ; preds = %47, %1
  call void @llvm.lifetime.end.p0(i64 8, ptr %3) #9
  ret void
}