; Function Attrs: nounwind uwtable
define internal fastcc void @_destroy_sacctmgr_file_opts(ptr noundef %0) unnamed_addr #0 {
  %2 = alloca ptr, align 8
  call void @llvm.lifetime.start.p0(i64 8, ptr nonnull %2) #12
  store ptr %0, ptr %2, align 8
  %.not = icmp eq ptr %0, null
  br i1 %.not, label %18, label %3

3:                                                ; preds = %1
  %4 = getelementptr inbounds nuw i8, ptr %0, i64 8
  tail call void @slurmdb_free_assoc_rec_members(ptr noundef nonnull %4) #12
  %5 = getelementptr inbounds nuw i8, ptr %0, i64 336
  %6 = load ptr, ptr %5, align 8
  %.not3 = icmp eq ptr %6, null
  br i1 %.not3, label %8, label %7

7:                                                ; preds = %3
  tail call void @list_destroy(ptr noundef nonnull %6) #12
  br label %8

8:                                                ; preds = %7, %3
  store ptr null, ptr %5, align 8
  %9 = getelementptr inbounds nuw i8, ptr %0, i64 344
  tail call void @slurm_xfree(ptr noundef nonnull %9) #12
  %10 = getelementptr inbounds nuw i8, ptr %0, i64 352
  tail call void @slurm_xfree(ptr noundef nonnull %10) #12
  %11 = getelementptr inbounds nuw i8, ptr %0, i64 360
  tail call void @slurm_xfree(ptr noundef nonnull %11) #12
  %12 = getelementptr inbounds nuw i8, ptr %0, i64 368
  tail call void @slurm_xfree(ptr noundef nonnull %12) #12
  %13 = getelementptr inbounds nuw i8, ptr %0, i64 376
  tail call void @slurm_xfree(ptr noundef nonnull %13) #12
  %14 = getelementptr inbounds nuw i8, ptr %0, i64 384
  %15 = load ptr, ptr %14, align 8
  %.not4 = icmp eq ptr %15, null
  br i1 %.not4, label %17, label %16

16:                                               ; preds = %8
  tail call void @list_destroy(ptr noundef nonnull %15) #12
  br label %17

17:                                               ; preds = %16, %8
  store ptr null, ptr %14, align 8
  call void @slurm_xfree(ptr noundef nonnull %2) #12
  br label %18

18:                                               ; preds = %17, %1
  call void @llvm.lifetime.end.p0(i64 8, ptr nonnull %2) #12
  ret void
}